Certificate:
    Data:
        Version: 3 (0x2)
        Serial Number: 14039958464388012963 (0xc2d7f3d623161ba3)
    Signature Algorithm: sha1WithRSAEncryption
        Issuer: C=FR, ST=France, O=4D, OU=R&D, CN=Wakanda.org/emailAddress=wakanda@wakanda.org
        Validity
            Not Before: Feb 19 09:22:20 2013 GMT
            Not After : Feb 19 09:22:20 2014 GMT
        Subject: C=FR, ST=France, L=Paris, O=FOR WAKANDA DEVELOPMENT ONLY, CN=localhost/emailAddress=wakanda@wakanda.org
        Subject Public Key Info:
            Public Key Algorithm: rsaEncryption
                Public-Key: (2048 bit)
                Modulus:
                    00:c4:ad:2b:2c:d1:1f:e8:61:ab:4f:cd:84:48:66:
                    17:48:22:19:97:7e:e0:ca:e2:49:c5:e4:3f:bc:e6:
                    90:4d:af:d9:18:35:af:e6:f7:c7:8b:57:ea:d2:7b:
                    9e:31:1f:cb:44:55:c5:82:d2:bf:a5:fd:df:03:ce:
                    78:cf:3a:fe:1c:1a:47:d9:b3:00:be:a2:1f:4d:ee:
                    e2:94:ea:ce:2f:c5:4f:fc:06:e6:88:7c:04:11:01:
                    b9:00:27:61:4f:d5:db:11:4a:21:ad:c2:37:9c:a9:
                    74:1d:e0:d6:aa:33:ad:6e:b4:a9:75:b2:8c:ce:a8:
                    df:68:58:8b:1c:46:71:9a:41:67:1e:ba:39:fe:bd:
                    1f:50:99:e0:99:49:07:e2:fc:10:02:21:48:50:8c:
                    8c:3f:a1:2f:4e:e4:16:02:9e:ae:2d:ef:e6:73:d5:
                    2e:6e:30:00:4e:68:76:94:e2:7e:0b:7c:e7:08:78:
                    d0:91:58:c7:57:11:64:30:5a:14:53:5b:e0:28:cf:
                    32:33:54:5f:ed:1d:b1:9d:64:fd:53:e1:ae:c3:52:
                    2d:35:fb:41:df:4a:11:ad:bd:42:50:8c:7d:e3:9f:
                    89:f3:e6:07:ea:16:8f:d3:0f:fa:56:40:b4:ad:4f:
                    2b:b6:d3:14:ae:86:f4:08:e3:16:d2:6c:c9:c9:e4:
                    2a:15
                Exponent: 65537 (0x10001)
        X509v3 extensions:
            X509v3 Basic Constraints: 
                CA:FALSE
            Netscape Comment: 
                OpenSSL Generated Certificate
            X509v3 Subject Key Identifier: 
                35:D2:1F:10:5A:2D:A1:00:3C:38:D0:DF:55:10:BF:41:CC:39:21:EB
            X509v3 Authority Key Identifier: 
                keyid:24:B4:50:7C:74:72:B1:22:7E:EE:34:C4:16:35:57:FE:0E:9A:B5:FE

    Signature Algorithm: sha1WithRSAEncryption
         af:45:1f:05:17:ff:54:5d:16:97:a7:f7:3c:4c:b0:69:dc:d4:
         3a:89:46:84:a3:34:52:af:21:b7:94:d4:be:66:e3:3c:24:9d:
         10:ee:03:ef:78:7c:2e:9a:ea:43:43:90:c4:bf:28:53:6b:ba:
         f0:c8:8e:b8:d2:1d:0c:4d:06:29:e0:1f:b9:d2:ee:43:57:79:
         7b:af:43:ad:9c:c4:21:64:ff:64:e9:dc:62:66:75:c3:39:f8:
         a1:56:57:b9:12:06:11:95:00:c4:27:d2:e2:87:3a:eb:18:a5:
         8e:4f:0b:53:e1:3e:13:4a:23:30:4d:13:c7:57:2d:34:84:6a:
         f4:1f
-----BEGIN CERTIFICATE-----
MIIDfjCCAuegAwIBAgIJAMLX89YjFhujMA0GCSqGSIb3DQEBBQUAMHMxCzAJBgNV
BAYTAkZSMQ8wDQYDVQQIDAZGcmFuY2UxCzAJBgNVBAoMAjREMQwwCgYDVQQLDANS
JkQxFDASBgNVBAMMC1dha2FuZGEub3JnMSIwIAYJKoZIhvcNAQkBFhN3YWthbmRh
QHdha2FuZGEub3JnMB4XDTEzMDIxOTA5MjIyMFoXDTE0MDIxOTA5MjIyMFowgY0x
CzAJBgNVBAYTAkZSMQ8wDQYDVQQIDAZGcmFuY2UxDjAMBgNVBAcMBVBhcmlzMSUw
IwYDVQQKDBxGT1IgV0FLQU5EQSBERVZFTE9QTUVOVCBPTkxZMRIwEAYDVQQDDAls
b2NhbGhvc3QxIjAgBgkqhkiG9w0BCQEWE3dha2FuZGFAd2FrYW5kYS5vcmcwggEi
MA0GCSqGSIb3DQEBAQUAA4IBDwAwggEKAoIBAQDErSss0R/oYatPzYRIZhdIIhmX
fuDK4knF5D+85pBNr9kYNa/m98eLV+rSe54xH8tEVcWC0r+l/d8DznjPOv4cGkfZ
swC+oh9N7uKU6s4vxU/8BuaIfAQRAbkAJ2FP1dsRSiGtwjecqXQd4NaqM61utKl1
sozOqN9oWIscRnGaQWceujn+vR9QmeCZSQfi/BACIUhQjIw/oS9O5BYCnq4t7+Zz
1S5uMABOaHaU4n4LfOcIeNCRWMdXEWQwWhRTW+AozzIzVF/tHbGdZP1T4a7DUi01
+0HfShGtvUJQjH3jn4nz5gfqFo/TD/pWQLStTyu20xSuhvQI4xbSbMnJ5CoVAgMB
AAGjezB5MAkGA1UdEwQCMAAwLAYJYIZIAYb4QgENBB8WHU9wZW5TU0wgR2VuZXJh
dGVkIENlcnRpZmljYXRlMB0GA1UdDgQWBBQ10h8QWi2hADw40N9VEL9BzDkh6zAf
BgNVHSMEGDAWgBQktFB8dHKxIn7uNMQWNVf+Dpq1/jANBgkqhkiG9w0BAQUFAAOB
gQCvRR8FF/9UXRaXp/c8TLBp3NQ6iUaEozRSryG3lNS+ZuM8JJ0Q7gPveHwumupD
Q5DEvyhTa7rwyI640h0MTQYp4B+50u5DV3l7r0OtnMQhZP9k6dxiZnXDOfihVle5
EgYRlQDEJ9LihzrrGKWOTwtT4T4TSiMwTRPHVy00hGr0Hw==
-----END CERTIFICATE-----
